target datalayout = "e-m:e-p270:32:32-p271:32:32-p272:64:64-i64:64-i128:128-f80:128-n8:16:32:64-S128"
target triple = "x86_64-pc-linux-gnu"

%struct.SurfaceDataRasInfo = type { %struct.SurfaceDataBounds, ptr, i32, i32, i32, i32, ptr, ptr, ptr, ptr, ptr, ptr, i32, %union.anon.0 }
%struct.SurfaceDataBounds = type { i32, i32, i32, i32 }
%union.anon.0 = type { ptr, [56 x i8] }

; Function Attrs: nounwind uwtable
define hidden void @ThreeByteBgrToUshort565RgbScaleConvert(ptr noundef %0, ptr noundef %1, i32 noundef %2, i32 noundef %3, i32 noundef %4, i32 noundef %5, i32 noundef %6, i32 noundef %7, i32 noundef %8, ptr noundef %9, ptr noundef %10, ptr noundef %11, ptr noundef %12) #1 {
  %14 = alloca ptr, align 8
  %15 = alloca ptr, align 8
  %16 = alloca i32, align 4
  %17 = alloca i32, align 4
  %18 = alloca i32, align 4
  %19 = alloca i32, align 4
  %20 = alloca i32, align 4
  %21 = alloca i32, align 4
  %22 = alloca i32, align 4
  %23 = alloca ptr, align 8
  %24 = alloca ptr, align 8
  %25 = alloca ptr, align 8
  %26 = alloca ptr, align 8
  %27 = alloca ptr, align 8
  %28 = alloca ptr, align 8
  %29 = alloca i32, align 4
  %30 = alloca i32, align 4
  %31 = alloca i32, align 4
  %32 = alloca i32, align 4
  %33 = alloca i32, align 4
  %34 = alloca i32, align 4
  %35 = alloca i32, align 4
  %36 = alloca i32, align 4
  store ptr %0, ptr %14, align 8
  store ptr %1, ptr %15, align 8
  store i32 %2, ptr %16, align 4
  store i32 %3, ptr %17, align 4
  store i32 %4, ptr %18, align 4
  store i32 %5, ptr %19, align 4
  store i32 %6, ptr %20, align 4
  store i32 %7, ptr %21, align 4
  store i32 %8, ptr %22, align 4
  store ptr %9, ptr %23, align 8
  store ptr %10, ptr %24, align 8
  store ptr %11, ptr %25, align 8
  store ptr %12, ptr %26, align 8
  br label %37

37:                                               ; preds = %13
  %38 = load ptr, ptr %15, align 8
  store ptr %38, ptr %28, align 8
  %39 = load ptr, ptr %23, align 8
  %40 = getelementptr inbounds %struct.SurfaceDataRasInfo, ptr %39, i32 0, i32 4
  %41 = load i32, ptr %40, align 8
  store i32 %41, ptr %29, align 4
  %42 = load ptr, ptr %24, align 8
  %43 = getelementptr inbounds %struct.SurfaceDataRasInfo, ptr %42, i32 0, i32 4
  %44 = load i32, ptr %43, align 8
  store i32 %44, ptr %30, align 4
  %45 = load i32, ptr %16, align 4
  %46 = mul i32 %45, 2
  %47 = load i32, ptr %30, align 4
  %48 = sub i32 %47, %46
  store i32 %48, ptr %30, align 4
  br label %49

49:                                               ; preds = %130, %37
  %50 = load i32, ptr %16, align 4
  store i32 %50, ptr %31, align 4
  %51 = load i32, ptr %18, align 4
  store i32 %51, ptr %32, align 4
  %52 = load ptr, ptr %14, align 8
  %53 = ptrtoint ptr %52 to i64
  %54 = load i32, ptr %19, align 4
  %55 = load i32, ptr %22, align 4
  %56 = ashr i32 %54, %55
  %57 = sext i32 %56 to i64
  %58 = load i32, ptr %29, align 4
  %59 = sext i32 %58 to i64
  %60 = mul nsw i64 %57, %59
  %61 = add nsw i64 %53, %60
  %62 = inttoptr i64 %61 to ptr
  store ptr %62, ptr %27, align 8
  br label %63

63:                                               ; preds = %116, %49
  %64 = load i32, ptr %32, align 4
  %65 = load i32, ptr %22, align 4
  %66 = ashr i32 %64, %65
  store i32 %66, ptr %33, align 4
  br label %67

67:                                               ; preds = %63
  br label %68

68:                                               ; preds = %67
  %69 = load ptr, ptr %27, align 8
  %70 = load i32, ptr %33, align 4
  %71 = mul nsw i32 3, %70
  %72 = add nsw i32 %71, 0
  %73 = sext i32 %72 to i64
  %74 = getelementptr inbounds i8, ptr %69, i64 %73
  %75 = load i8, ptr %74, align 1
  %76 = zext i8 %75 to i32
  store i32 %76, ptr %36, align 4
  %77 = load ptr, ptr %27, align 8
  %78 = load i32, ptr %33, align 4
  %79 = mul nsw i32 3, %78
  %80 = add nsw i32 %79, 1
  %81 = sext i32 %80 to i64
  %82 = getelementptr inbounds i8, ptr %77, i64 %81
  %83 = load i8, ptr %82, align 1
  %84 = zext i8 %83 to i32
  store i32 %84, ptr %35, align 4
  %85 = load ptr, ptr %27, align 8
  %86 = load i32, ptr %33, align 4
  %87 = mul nsw i32 3, %86
  %88 = add nsw i32 %87, 2
  %89 = sext i32 %88 to i64
  %90 = getelementptr inbounds i8, ptr %85, i64 %89
  %91 = load i8, ptr %90, align 1
  %92 = zext i8 %91 to i32
  store i32 %92, ptr %34, align 4
  br label %93

93:                                               ; preds = %68
  %94 = load i32, ptr %34, align 4
  %95 = ashr i32 %94, 3
  %96 = shl i32 %95, 11
  %97 = load i32, ptr %35, align 4
  %98 = ashr i32 %97, 2
  %99 = shl i32 %98, 5
  %100 = or i32 %96, %99
  %101 = load i32, ptr %36, align 4
  %102 = ashr i32 %101, 3
  %103 = shl i32 %102, 0
  %104 = or i32 %100, %103
  %105 = trunc i32 %104 to i16
  %106 = load ptr, ptr %28, align 8
  %107 = getelementptr inbounds i16, ptr %106, i64 0
  store i16 %105, ptr %107, align 2
  br label %108

108:                                              ; preds = %93
  %109 = load ptr, ptr %28, align 8
  %110 = ptrtoint ptr %109 to i64
  %111 = add nsw i64 %110, 2
  %112 = inttoptr i64 %111 to ptr
  store ptr %112, ptr %28, align 8
  %113 = load i32, ptr %20, align 4
  %114 = load i32, ptr %32, align 4
  %115 = add nsw i32 %114, %113
  store i32 %115, ptr %32, align 4
  br label %116

116:                                              ; preds = %108
  %117 = load i32, ptr %31, align 4
  %118 = add i32 %117, -1
  store i32 %118, ptr %31, align 4
  %119 = icmp ugt i32 %118, 0
  br i1 %119, label %63, label %120, !llvm.loop !23

120:                                              ; preds = %116
  %121 = load ptr, ptr %28, align 8
  %122 = ptrtoint ptr %121 to i64
  %123 = load i32, ptr %30, align 4
  %124 = sext i32 %123 to i64
  %125 = add nsw i64 %122, %124
  %126 = inttoptr i64 %125 to ptr
  store ptr %126, ptr %28, align 8
  %127 = load i32, ptr %21, align 4
  %128 = load i32, ptr %19, align 4
  %129 = add nsw i32 %128, %127
  store i32 %129, ptr %19, align 4
  br label %130

130:                                              ; preds = %120
  %131 = load i32, ptr %17, align 4
  %132 = add i32 %131, -1
  store i32 %132, ptr %17, align 4
  %133 = icmp ugt i32 %132, 0
  br i1 %133, label %49, label %134, !llvm.loop !24

134:                                              ; preds = %130
  br label %135

135:                                              ; preds = %134
  ret void
}