; Function Attrs: nofree norecurse nosync nounwind memory(readwrite, inaccessiblemem: none) uwtable
define hidden void @ThreeByteBgrToUshort565RgbScaleConvert(ptr noundef %0, ptr noundef %1, i32 noundef %2, i32 noundef %3, i32 noundef %4, i32 noundef %5, i32 noundef %6, i32 noundef %7, i32 noundef %8, ptr nocapture noundef readonly %9, ptr nocapture noundef readonly %10, ptr nocapture readnone %11, ptr nocapture readnone %12) #1 {
  %14 = getelementptr inbounds i8, ptr %9, i64 32
  %15 = load i32, ptr %14, align 8
  %16 = getelementptr inbounds i8, ptr %10, i64 32
  %17 = load i32, ptr %16, align 8
  %18 = shl i32 %2, 1
  %19 = sub i32 %17, %18
  %20 = sext i32 %19 to i64
  %21 = ptrtoint ptr %0 to i64
  %22 = sext i32 %15 to i64
  br label %23

23:                                               ; preds = %54, %13
  %.032 = phi ptr [ %1, %13 ], [ %56, %54 ]
  %.031 = phi i32 [ %5, %13 ], [ %57, %54 ]
  %.0 = phi i32 [ %3, %13 ], [ %58, %54 ]
  %24 = ashr i32 %.031, %8
  %25 = sext i32 %24 to i64
  %26 = mul nsw i64 %25, %22
  %27 = add nsw i64 %26, %21
  %28 = inttoptr i64 %27 to ptr
  br label %29

29:                                               ; preds = %29, %23
  %.034 = phi i32 [ %2, %23 ], [ %53, %29 ]
  %.033 = phi i32 [ %4, %23 ], [ %52, %29 ]
  %.1 = phi ptr [ %.032, %23 ], [ %51, %29 ]
  %30 = ashr i32 %.033, %8
  %31 = mul nsw i32 %30, 3
  %32 = sext i32 %31 to i64
  %33 = getelementptr inbounds i8, ptr %28, i64 %32
  %34 = load i8, ptr %33, align 1
  %35 = getelementptr i8, ptr %33, i64 1
  %36 = load i8, ptr %35, align 1
  %37 = getelementptr i8, ptr %33, i64 2
  %38 = load i8, ptr %37, align 1
  %39 = lshr i8 %38, 3
  %40 = zext nneg i8 %39 to i16
  %41 = shl nuw i16 %40, 11
  %42 = lshr i8 %36, 2
  %43 = zext nneg i8 %42 to i16
  %44 = shl nuw nsw i16 %43, 5
  %45 = or disjoint i16 %41, %44
  %46 = lshr i8 %34, 3
  %47 = zext nneg i8 %46 to i16
  %48 = or disjoint i16 %45, %47
  store i16 %48, ptr %.1, align 2
  %49 = ptrtoint ptr %.1 to i64
  %50 = add nsw i64 %49, 2
  %51 = inttoptr i64 %50 to ptr
  %52 = add nsw i32 %.033, %6
  %53 = add i32 %.034, -1
  %.not = icmp eq i32 %53, 0
  br i1 %.not, label %54, label %29, !llvm.loop !22

54:                                               ; preds = %29
  %55 = add nsw i64 %50, %20
  %56 = inttoptr i64 %55 to ptr
  %57 = add nsw i32 %.031, %7
  %58 = add i32 %.0, -1
  %.not36 = icmp eq i32 %58, 0
  br i1 %.not36, label %59, label %23, !llvm.loop !23

59:                                               ; preds = %54
  ret void
}